target datalayout = "e-m:e-p270:32:32-p271:32:32-p272:64:64-i64:64-i128:128-f80:128-n8:16:32:64-S128"
target triple = "x86_64-pc-linux-gnu"

%struct.grpc_slice = type { ptr, %"union.grpc_slice::grpc_slice_data" }
%"union.grpc_slice::grpc_slice_data" = type { %"struct.grpc_slice::grpc_slice_data::grpc_slice_refcounted", [8 x i8] }
%"struct.grpc_slice::grpc_slice_data::grpc_slice_refcounted" = type { i64, ptr }
%"struct.grpc_slice::grpc_slice_data::grpc_slice_inlined" = type { i8, [23 x i8] }

; Function Attrs: mustprogress nounwind uwtable
define i32 @grpc_slice_buf_start_eq(ptr noundef byval(%struct.grpc_slice) align 8 %0, ptr noundef %1, i64 noundef %2) #7 {
  %4 = alloca i32, align 4
  %5 = alloca ptr, align 8
  %6 = alloca i64, align 8
  store ptr %1, ptr %5, align 8, !tbaa !14
  store i64 %2, ptr %6, align 8, !tbaa !12
  %7 = getelementptr inbounds nuw %struct.grpc_slice, ptr %0, i32 0, i32 0
  %8 = load ptr, ptr %7, align 8, !tbaa !3
  %9 = icmp ne ptr %8, null
  br i1 %9, label %10, label %14

10:                                               ; preds = %3
  %11 = getelementptr inbounds nuw %struct.grpc_slice, ptr %0, i32 0, i32 1
  %12 = getelementptr inbounds nuw %"struct.grpc_slice::grpc_slice_data::grpc_slice_refcounted", ptr %11, i32 0, i32 0
  %13 = load i64, ptr %12, align 8, !tbaa !9
  br label %19

14:                                               ; preds = %3
  %15 = getelementptr inbounds nuw %struct.grpc_slice, ptr %0, i32 0, i32 1
  %16 = getelementptr inbounds nuw %"struct.grpc_slice::grpc_slice_data::grpc_slice_inlined", ptr %15, i32 0, i32 0
  %17 = load i8, ptr %16, align 8, !tbaa !9
  %18 = zext i8 %17 to i64
  br label %19

19:                                               ; preds = %14, %10
  %20 = phi i64 [ %13, %10 ], [ %18, %14 ]
  %21 = load i64, ptr %6, align 8, !tbaa !12
  %22 = icmp ult i64 %20, %21
  br i1 %22, label %23, label %24

23:                                               ; preds = %19
  store i32 0, ptr %4, align 4
  br label %43

24:                                               ; preds = %19
  %25 = getelementptr inbounds nuw %struct.grpc_slice, ptr %0, i32 0, i32 0
  %26 = load ptr, ptr %25, align 8, !tbaa !3
  %27 = icmp ne ptr %26, null
  br i1 %27, label %28, label %32

28:                                               ; preds = %24
  %29 = getelementptr inbounds nuw %struct.grpc_slice, ptr %0, i32 0, i32 1
  %30 = getelementptr inbounds nuw %"struct.grpc_slice::grpc_slice_data::grpc_slice_refcounted", ptr %29, i32 0, i32 1
  %31 = load ptr, ptr %30, align 8, !tbaa !9
  br label %36

32:                                               ; preds = %24
  %33 = getelementptr inbounds nuw %struct.grpc_slice, ptr %0, i32 0, i32 1
  %34 = getelementptr inbounds nuw %"struct.grpc_slice::grpc_slice_data::grpc_slice_inlined", ptr %33, i32 0, i32 1
  %35 = getelementptr inbounds [23 x i8], ptr %34, i64 0, i64 0
  br label %36

36:                                               ; preds = %32, %28
  %37 = phi ptr [ %31, %28 ], [ %35, %32 ]
  %38 = load ptr, ptr %5, align 8, !tbaa !14
  %39 = load i64, ptr %6, align 8, !tbaa !12
  %40 = call i32 @memcmp(ptr noundef %37, ptr noundef %38, i64 noundef %39) #19
  %41 = icmp eq i32 0, %40
  %42 = zext i1 %41 to i32
  store i32 %42, ptr %4, align 4
  br label %43

43:                                               ; preds = %36, %23
  %44 = load i32, ptr %4, align 4
  ret i32 %44
}