; Function Attrs: mustprogress nofree nounwind willreturn memory(read, inaccessiblemem: none) uwtable
define range(i32 0, 2) i32 @grpc_slice_buf_start_eq(ptr noundef readonly byval(%struct.grpc_slice) align 8 captures(none) %0, ptr noundef readonly captures(none) %1, i64 noundef %2) local_unnamed_addr #13 {
  %4 = load ptr, ptr %0, align 8, !tbaa !3
  %.not = icmp eq ptr %4, null
  %5 = getelementptr inbounds nuw i8, ptr %0, i64 8
  %6 = load i64, ptr %5, align 8
  %7 = and i64 %6, 255
  %8 = select i1 %.not, i64 %7, i64 %6
  %9 = icmp ult i64 %8, %2
  br i1 %9, label %17, label %10

10:                                               ; preds = %3
  %11 = getelementptr inbounds nuw i8, ptr %0, i64 16
  %12 = load ptr, ptr %11, align 8
  %13 = getelementptr inbounds nuw i8, ptr %0, i64 9
  %14 = select i1 %.not, ptr %13, ptr %12
  %bcmp = call i32 @bcmp(ptr %14, ptr %1, i64 %2)
  %15 = icmp eq i32 %bcmp, 0
  %16 = zext i1 %15 to i32
  br label %17

17:                                               ; preds = %3, %10
  %.0 = phi i32 [ %16, %10 ], [ 0, %3 ]
  ret i32 %.0
}